target datalayout = "e-m:e-p270:32:32-p271:32:32-p272:64:64-i64:64-i128:128-f80:128-n8:16:32:64-S128"
target triple = "x86_64-pc-linux-gnu"

%"struct.Luau::CodeGen::BuiltinImplResult" = type { i32, i32 }
%"struct.Luau::CodeGen::IrOp" = type { i32 }

; Function Attrs: mustprogress uwtable
define internal i64 @_ZN4Luau7CodeGenL26translateBuiltinVectorMap2ERNS0_9IrBuilderENS0_5IrCmdEiiiNS0_4IrOpES4_ii(ptr noundef nonnull align 8 dereferenceable(752) %0, i8 noundef zeroext %1, i32 noundef %2, i32 noundef %3, i32 noundef %4, i32 %5, i32 %6, i32 noundef %7, i32 noundef %8) #2 {
  %10 = alloca %"struct.Luau::CodeGen::BuiltinImplResult", align 4
  %11 = alloca %"struct.Luau::CodeGen::IrOp", align 4
  %12 = alloca %"struct.Luau::CodeGen::IrOp", align 4
  %13 = alloca ptr, align 8
  %14 = alloca i8, align 1
  %15 = alloca i32, align 4
  %16 = alloca i32, align 4
  %17 = alloca i32, align 4
  %18 = alloca i32, align 4
  %19 = alloca i32, align 4
  %20 = alloca %"struct.Luau::CodeGen::IrOp", align 4
  %21 = alloca i32, align 4
  %22 = alloca %"struct.Luau::CodeGen::IrOp", align 4
  %23 = alloca %"struct.Luau::CodeGen::IrOp", align 4
  %24 = alloca %"struct.Luau::CodeGen::IrOp", align 4
  %25 = alloca %"struct.Luau::CodeGen::IrOp", align 4
  %26 = alloca %"struct.Luau::CodeGen::IrOp", align 4
  %27 = alloca %"struct.Luau::CodeGen::IrOp", align 4
  %28 = alloca %"struct.Luau::CodeGen::IrOp", align 4
  %29 = alloca %"struct.Luau::CodeGen::IrOp", align 4
  %30 = alloca %"struct.Luau::CodeGen::IrOp", align 4
  %31 = alloca %"struct.Luau::CodeGen::IrOp", align 4
  %32 = alloca %"struct.Luau::CodeGen::IrOp", align 4
  %33 = alloca %"struct.Luau::CodeGen::IrOp", align 4
  %34 = alloca %"struct.Luau::CodeGen::IrOp", align 4
  %35 = alloca %"struct.Luau::CodeGen::IrOp", align 4
  %36 = alloca %"struct.Luau::CodeGen::IrOp", align 4
  %37 = alloca %"struct.Luau::CodeGen::IrOp", align 4
  %38 = alloca %"struct.Luau::CodeGen::IrOp", align 4
  %39 = alloca %"struct.Luau::CodeGen::IrOp", align 4
  %40 = alloca %"struct.Luau::CodeGen::IrOp", align 4
  %41 = alloca %"struct.Luau::CodeGen::IrOp", align 4
  %42 = alloca %"struct.Luau::CodeGen::IrOp", align 4
  %43 = alloca %"struct.Luau::CodeGen::IrOp", align 4
  %44 = alloca %"struct.Luau::CodeGen::IrOp", align 4
  %45 = alloca %"struct.Luau::CodeGen::IrOp", align 4
  %46 = alloca %"struct.Luau::CodeGen::IrOp", align 4
  %47 = alloca %"struct.Luau::CodeGen::IrOp", align 4
  %48 = alloca %"struct.Luau::CodeGen::IrOp", align 4
  %49 = alloca %"struct.Luau::CodeGen::IrOp", align 4
  %50 = alloca %"struct.Luau::CodeGen::IrOp", align 4
  %51 = alloca %"struct.Luau::CodeGen::IrOp", align 4
  %52 = alloca %"struct.Luau::CodeGen::IrOp", align 4
  %53 = alloca %"struct.Luau::CodeGen::IrOp", align 4
  %54 = alloca %"struct.Luau::CodeGen::IrOp", align 4
  %55 = alloca %"struct.Luau::CodeGen::IrOp", align 4
  %56 = alloca %"struct.Luau::CodeGen::IrOp", align 4
  %57 = alloca %"struct.Luau::CodeGen::IrOp", align 4
  %58 = alloca %"struct.Luau::CodeGen::IrOp", align 4
  %59 = alloca %"struct.Luau::CodeGen::IrOp", align 4
  %60 = alloca %"struct.Luau::CodeGen::IrOp", align 4
  %61 = getelementptr inbounds nuw %"struct.Luau::CodeGen::IrOp", ptr %11, i32 0, i32 0
  store i32 %5, ptr %61, align 4
  %62 = getelementptr inbounds nuw %"struct.Luau::CodeGen::IrOp", ptr %12, i32 0, i32 0
  store i32 %6, ptr %62, align 4
  store ptr %0, ptr %13, align 8, !tbaa !20
  store i8 %1, ptr %14, align 1, !tbaa !32
  store i32 %2, ptr %15, align 4, !tbaa !22
  store i32 %3, ptr %16, align 4, !tbaa !22
  store i32 %4, ptr %17, align 4, !tbaa !22
  store i32 %7, ptr %18, align 4, !tbaa !22
  store i32 %8, ptr %19, align 4, !tbaa !22
  call void @llvm.lifetime.start.p0(i64 4, ptr %20) #11
  %63 = load ptr, ptr %13, align 8, !tbaa !20
  %64 = load i32, ptr %17, align 4, !tbaa !22
  %65 = trunc i32 %64 to i8
  %66 = call i32 @_ZN4Luau7CodeGen9IrBuilder5vmRegEh(ptr noundef nonnull align 8 dereferenceable(752) %63, i8 noundef zeroext %65)
  %67 = getelementptr inbounds nuw %"struct.Luau::CodeGen::IrOp", ptr %20, i32 0, i32 0
  store i32 %66, ptr %67, align 4
  %68 = load i32, ptr %15, align 4, !tbaa !22
  %69 = icmp ne i32 %68, 2
  br i1 %69, label %81, label %70

70:                                               ; preds = %9
  %71 = load i32, ptr %18, align 4, !tbaa !22
  %72 = icmp sgt i32 %71, 1
  br i1 %72, label %81, label %73

73:                                               ; preds = %70
  %74 = load i32, ptr %20, align 4
  %75 = and i32 %74, 15
  %76 = icmp eq i32 %75, 2
  br i1 %76, label %81, label %77

77:                                               ; preds = %73
  %78 = load i32, ptr %11, align 4
  %79 = and i32 %78, 15
  %80 = icmp eq i32 %79, 2
  br i1 %80, label %81, label %84

81:                                               ; preds = %77, %73, %70, %9
  %82 = getelementptr inbounds nuw %"struct.Luau::CodeGen::BuiltinImplResult", ptr %10, i32 0, i32 0
  store i32 0, ptr %82, align 4, !tbaa !24
  %83 = getelementptr inbounds nuw %"struct.Luau::CodeGen::BuiltinImplResult", ptr %10, i32 0, i32 1
  store i32 -1, ptr %83, align 4, !tbaa !27
  store i32 1, ptr %21, align 4
  br label %220

84:                                               ; preds = %77
  %85 = load ptr, ptr %13, align 8, !tbaa !20
  call void @llvm.memcpy.p0.p0.i64(ptr align 4 %22, ptr align 4 %20, i64 4, i1 false), !tbaa.struct !28
  %86 = load ptr, ptr %13, align 8, !tbaa !20
  %87 = load i32, ptr %19, align 4, !tbaa !22
  %88 = call i32 @_ZN4Luau7CodeGen9IrBuilder6vmExitEj(ptr noundef nonnull align 8 dereferenceable(752) %86, i32 noundef %87)
  %89 = getelementptr inbounds nuw %"struct.Luau::CodeGen::IrOp", ptr %23, i32 0, i32 0
  store i32 %88, ptr %89, align 4
  %90 = getelementptr inbounds nuw %"struct.Luau::CodeGen::IrOp", ptr %22, i32 0, i32 0
  %91 = load i32, ptr %90, align 4
  %92 = getelementptr inbounds nuw %"struct.Luau::CodeGen::IrOp", ptr %23, i32 0, i32 0
  %93 = load i32, ptr %92, align 4
  call void @_ZN4Luau7CodeGen9IrBuilder15loadAndCheckTagENS0_4IrOpEhS2_(ptr noundef nonnull align 8 dereferenceable(752) %85, i32 %91, i8 noundef zeroext 4, i32 %93)
  %94 = load ptr, ptr %13, align 8, !tbaa !20
  call void @llvm.memcpy.p0.p0.i64(ptr align 4 %24, ptr align 4 %11, i64 4, i1 false), !tbaa.struct !28
  %95 = load ptr, ptr %13, align 8, !tbaa !20
  %96 = load i32, ptr %19, align 4, !tbaa !22
  %97 = call i32 @_ZN4Luau7CodeGen9IrBuilder6vmExitEj(ptr noundef nonnull align 8 dereferenceable(752) %95, i32 noundef %96)
  %98 = getelementptr inbounds nuw %"struct.Luau::CodeGen::IrOp", ptr %25, i32 0, i32 0
  store i32 %97, ptr %98, align 4
  %99 = getelementptr inbounds nuw %"struct.Luau::CodeGen::IrOp", ptr %24, i32 0, i32 0
  %100 = load i32, ptr %99, align 4
  %101 = getelementptr inbounds nuw %"struct.Luau::CodeGen::IrOp", ptr %25, i32 0, i32 0
  %102 = load i32, ptr %101, align 4
  call void @_ZN4Luau7CodeGen9IrBuilder15loadAndCheckTagENS0_4IrOpEhS2_(ptr noundef nonnull align 8 dereferenceable(752) %94, i32 %100, i8 noundef zeroext 4, i32 %102)
  call void @llvm.lifetime.start.p0(i64 4, ptr %26) #11
  %103 = load ptr, ptr %13, align 8, !tbaa !20
  call void @llvm.memcpy.p0.p0.i64(ptr align 4 %27, ptr align 4 %20, i64 4, i1 false), !tbaa.struct !28
  %104 = load ptr, ptr %13, align 8, !tbaa !20
  %105 = call i32 @_ZN4Luau7CodeGen9IrBuilder8constIntEi(ptr noundef nonnull align 8 dereferenceable(752) %104, i32 noundef 0)
  %106 = getelementptr inbounds nuw %"struct.Luau::CodeGen::IrOp", ptr %28, i32 0, i32 0
  store i32 %105, ptr %106, align 4
  %107 = getelementptr inbounds nuw %"struct.Luau::CodeGen::IrOp", ptr %27, i32 0, i32 0
  %108 = load i32, ptr %107, align 4
  %109 = getelementptr inbounds nuw %"struct.Luau::CodeGen::IrOp", ptr %28, i32 0, i32 0
  %110 = load i32, ptr %109, align 4
  %111 = call i32 @_ZN4Luau7CodeGen9IrBuilder4instENS0_5IrCmdENS0_4IrOpES3_(ptr noundef nonnull align 8 dereferenceable(752) %103, i8 noundef zeroext 5, i32 %108, i32 %110)
  %112 = getelementptr inbounds nuw %"struct.Luau::CodeGen::IrOp", ptr %26, i32 0, i32 0
  store i32 %111, ptr %112, align 4
  call void @llvm.lifetime.start.p0(i64 4, ptr %29) #11
  %113 = load ptr, ptr %13, align 8, !tbaa !20
  call void @llvm.memcpy.p0.p0.i64(ptr align 4 %30, ptr align 4 %20, i64 4, i1 false), !tbaa.struct !28
  %114 = load ptr, ptr %13, align 8, !tbaa !20
  %115 = call i32 @_ZN4Luau7CodeGen9IrBuilder8constIntEi(ptr noundef nonnull align 8 dereferenceable(752) %114, i32 noundef 4)
  %116 = getelementptr inbounds nuw %"struct.Luau::CodeGen::IrOp", ptr %31, i32 0, i32 0
  store i32 %115, ptr %116, align 4
  %117 = getelementptr inbounds nuw %"struct.Luau::CodeGen::IrOp", ptr %30, i32 0, i32 0
  %118 = load i32, ptr %117, align 4
  %119 = getelementptr inbounds nuw %"struct.Luau::CodeGen::IrOp", ptr %31, i32 0, i32 0
  %120 = load i32, ptr %119, align 4
  %121 = call i32 @_ZN4Luau7CodeGen9IrBuilder4instENS0_5IrCmdENS0_4IrOpES3_(ptr noundef nonnull align 8 dereferenceable(752) %113, i8 noundef zeroext 5, i32 %118, i32 %120)
  %122 = getelementptr inbounds nuw %"struct.Luau::CodeGen::IrOp", ptr %29, i32 0, i32 0
  store i32 %121, ptr %122, align 4
  call void @llvm.lifetime.start.p0(i64 4, ptr %32) #11
  %123 = load ptr, ptr %13, align 8, !tbaa !20
  call void @llvm.memcpy.p0.p0.i64(ptr align 4 %33, ptr align 4 %20, i64 4, i1 false), !tbaa.struct !28
  %124 = load ptr, ptr %13, align 8, !tbaa !20
  %125 = call i32 @_ZN4Luau7CodeGen9IrBuilder8constIntEi(ptr noundef nonnull align 8 dereferenceable(752) %124, i32 noundef 8)
  %126 = getelementptr inbounds nuw %"struct.Luau::CodeGen::IrOp", ptr %34, i32 0, i32 0
  store i32 %125, ptr %126, align 4
  %127 = getelementptr inbounds nuw %"struct.Luau::CodeGen::IrOp", ptr %33, i32 0, i32 0
  %128 = load i32, ptr %127, align 4
  %129 = getelementptr inbounds nuw %"struct.Luau::CodeGen::IrOp", ptr %34, i32 0, i32 0
  %130 = load i32, ptr %129, align 4
  %131 = call i32 @_ZN4Luau7CodeGen9IrBuilder4instENS0_5IrCmdENS0_4IrOpES3_(ptr noundef nonnull align 8 dereferenceable(752) %123, i8 noundef zeroext 5, i32 %128, i32 %130)
  %132 = getelementptr inbounds nuw %"struct.Luau::CodeGen::IrOp", ptr %32, i32 0, i32 0
  store i32 %131, ptr %132, align 4
  call void @llvm.lifetime.start.p0(i64 4, ptr %35) #11
  %133 = load ptr, ptr %13, align 8, !tbaa !20
  call void @llvm.memcpy.p0.p0.i64(ptr align 4 %36, ptr align 4 %11, i64 4, i1 false), !tbaa.struct !28
  %134 = load ptr, ptr %13, align 8, !tbaa !20
  %135 = call i32 @_ZN4Luau7CodeGen9IrBuilder8constIntEi(ptr noundef nonnull align 8 dereferenceable(752) %134, i32 noundef 0)
  %136 = getelementptr inbounds nuw %"struct.Luau::CodeGen::IrOp", ptr %37, i32 0, i32 0
  store i32 %135, ptr %136, align 4
  %137 = getelementptr inbounds nuw %"struct.Luau::CodeGen::IrOp", ptr %36, i32 0, i32 0
  %138 = load i32, ptr %137, align 4
  %139 = getelementptr inbounds nuw %"struct.Luau::CodeGen::IrOp", ptr %37, i32 0, i32 0
  %140 = load i32, ptr %139, align 4
  %141 = call i32 @_ZN4Luau7CodeGen9IrBuilder4instENS0_5IrCmdENS0_4IrOpES3_(ptr noundef nonnull align 8 dereferenceable(752) %133, i8 noundef zeroext 5, i32 %138, i32 %140)
  %142 = getelementptr inbounds nuw %"struct.Luau::CodeGen::IrOp", ptr %35, i32 0, i32 0
  store i32 %141, ptr %142, align 4
  call void @llvm.lifetime.start.p0(i64 4, ptr %38) #11
  %143 = load ptr, ptr %13, align 8, !tbaa !20
  call void @llvm.memcpy.p0.p0.i64(ptr align 4 %39, ptr align 4 %11, i64 4, i1 false), !tbaa.struct !28
  %144 = load ptr, ptr %13, align 8, !tbaa !20
  %145 = call i32 @_ZN4Luau7CodeGen9IrBuilder8constIntEi(ptr noundef nonnull align 8 dereferenceable(752) %144, i32 noundef 4)
  %146 = getelementptr inbounds nuw %"struct.Luau::CodeGen::IrOp", ptr %40, i32 0, i32 0
  store i32 %145, ptr %146, align 4
  %147 = getelementptr inbounds nuw %"struct.Luau::CodeGen::IrOp", ptr %39, i32 0, i32 0
  %148 = load i32, ptr %147, align 4
  %149 = getelementptr inbounds nuw %"struct.Luau::CodeGen::IrOp", ptr %40, i32 0, i32 0
  %150 = load i32, ptr %149, align 4
  %151 = call i32 @_ZN4Luau7CodeGen9IrBuilder4instENS0_5IrCmdENS0_4IrOpES3_(ptr noundef nonnull align 8 dereferenceable(752) %143, i8 noundef zeroext 5, i32 %148, i32 %150)
  %152 = getelementptr inbounds nuw %"struct.Luau::CodeGen::IrOp", ptr %38, i32 0, i32 0
  store i32 %151, ptr %152, align 4
  call void @llvm.lifetime.start.p0(i64 4, ptr %41) #11
  %153 = load ptr, ptr %13, align 8, !tbaa !20
  call void @llvm.memcpy.p0.p0.i64(ptr align 4 %42, ptr align 4 %11, i64 4, i1 false), !tbaa.struct !28
  %154 = load ptr, ptr %13, align 8, !tbaa !20
  %155 = call i32 @_ZN4Luau7CodeGen9IrBuilder8constIntEi(ptr noundef nonnull align 8 dereferenceable(752) %154, i32 noundef 8)
  %156 = getelementptr inbounds nuw %"struct.Luau::CodeGen::IrOp", ptr %43, i32 0, i32 0
  store i32 %155, ptr %156, align 4
  %157 = getelementptr inbounds nuw %"struct.Luau::CodeGen::IrOp", ptr %42, i32 0, i32 0
  %158 = load i32, ptr %157, align 4
  %159 = getelementptr inbounds nuw %"struct.Luau::CodeGen::IrOp", ptr %43, i32 0, i32 0
  %160 = load i32, ptr %159, align 4
  %161 = call i32 @_ZN4Luau7CodeGen9IrBuilder4instENS0_5IrCmdENS0_4IrOpES3_(ptr noundef nonnull align 8 dereferenceable(752) %153, i8 noundef zeroext 5, i32 %158, i32 %160)
  %162 = getelementptr inbounds nuw %"struct.Luau::CodeGen::IrOp", ptr %41, i32 0, i32 0
  store i32 %161, ptr %162, align 4
  call void @llvm.lifetime.start.p0(i64 4, ptr %44) #11
  %163 = load ptr, ptr %13, align 8, !tbaa !20
  %164 = load i8, ptr %14, align 1, !tbaa !32
  call void @llvm.memcpy.p0.p0.i64(ptr align 4 %45, ptr align 4 %26, i64 4, i1 false), !tbaa.struct !28
  call void @llvm.memcpy.p0.p0.i64(ptr align 4 %46, ptr align 4 %35, i64 4, i1 false), !tbaa.struct !28
  %165 = getelementptr inbounds nuw %"struct.Luau::CodeGen::IrOp", ptr %45, i32 0, i32 0
  %166 = load i32, ptr %165, align 4
  %167 = getelementptr inbounds nuw %"struct.Luau::CodeGen::IrOp", ptr %46, i32 0, i32 0
  %168 = load i32, ptr %167, align 4
  %169 = call i32 @_ZN4Luau7CodeGen9IrBuilder4instENS0_5IrCmdENS0_4IrOpES3_(ptr noundef nonnull align 8 dereferenceable(752) %163, i8 noundef zeroext %164, i32 %166, i32 %168)
  %170 = getelementptr inbounds nuw %"struct.Luau::CodeGen::IrOp", ptr %44, i32 0, i32 0
  store i32 %169, ptr %170, align 4
  call void @llvm.lifetime.start.p0(i64 4, ptr %47) #11
  %171 = load ptr, ptr %13, align 8, !tbaa !20
  %172 = load i8, ptr %14, align 1, !tbaa !32
  call void @llvm.memcpy.p0.p0.i64(ptr align 4 %48, ptr align 4 %29, i64 4, i1 false), !tbaa.struct !28
  call void @llvm.memcpy.p0.p0.i64(ptr align 4 %49, ptr align 4 %38, i64 4, i1 false), !tbaa.struct !28
  %173 = getelementptr inbounds nuw %"struct.Luau::CodeGen::IrOp", ptr %48, i32 0, i32 0
  %174 = load i32, ptr %173, align 4
  %175 = getelementptr inbounds nuw %"struct.Luau::CodeGen::IrOp", ptr %49, i32 0, i32 0
  %176 = load i32, ptr %175, align 4
  %177 = call i32 @_ZN4Luau7CodeGen9IrBuilder4instENS0_5IrCmdENS0_4IrOpES3_(ptr noundef nonnull align 8 dereferenceable(752) %171, i8 noundef zeroext %172, i32 %174, i32 %176)
  %178 = getelementptr inbounds nuw %"struct.Luau::CodeGen::IrOp", ptr %47, i32 0, i32 0
  store i32 %177, ptr %178, align 4
  call void @llvm.lifetime.start.p0(i64 4, ptr %50) #11
  %179 = load ptr, ptr %13, align 8, !tbaa !20
  %180 = load i8, ptr %14, align 1, !tbaa !32
  call void @llvm.memcpy.p0.p0.i64(ptr align 4 %51, ptr align 4 %32, i64 4, i1 false), !tbaa.struct !28
  call void @llvm.memcpy.p0.p0.i64(ptr align 4 %52, ptr align 4 %41, i64 4, i1 false), !tbaa.struct !28
  %181 = getelementptr inbounds nuw %"struct.Luau::CodeGen::IrOp", ptr %51, i32 0, i32 0
  %182 = load i32, ptr %181, align 4
  %183 = getelementptr inbounds nuw %"struct.Luau::CodeGen::IrOp", ptr %52, i32 0, i32 0
  %184 = load i32, ptr %183, align 4
  %185 = call i32 @_ZN4Luau7CodeGen9IrBuilder4instENS0_5IrCmdENS0_4IrOpES3_(ptr noundef nonnull align 8 dereferenceable(752) %179, i8 noundef zeroext %180, i32 %182, i32 %184)
  %186 = getelementptr inbounds nuw %"struct.Luau::CodeGen::IrOp", ptr %50, i32 0, i32 0
  store i32 %185, ptr %186, align 4
  %187 = load ptr, ptr %13, align 8, !tbaa !20
  %188 = load ptr, ptr %13, align 8, !tbaa !20
  %189 = load i32, ptr %16, align 4, !tbaa !22
  %190 = trunc i32 %189 to i8
  %191 = call i32 @_ZN4Luau7CodeGen9IrBuilder5vmRegEh(ptr noundef nonnull align 8 dereferenceable(752) %188, i8 noundef zeroext %190)
  %192 = getelementptr inbounds nuw %"struct.Luau::CodeGen::IrOp", ptr %53, i32 0, i32 0
  store i32 %191, ptr %192, align 4
  call void @llvm.memcpy.p0.p0.i64(ptr align 4 %54, ptr align 4 %44, i64 4, i1 false), !tbaa.struct !28
  call void @llvm.memcpy.p0.p0.i64(ptr align 4 %55, ptr align 4 %47, i64 4, i1 false), !tbaa.struct !28
  call void @llvm.memcpy.p0.p0.i64(ptr align 4 %56, ptr align 4 %50, i64 4, i1 false), !tbaa.struct !28
  %193 = getelementptr inbounds nuw %"struct.Luau::CodeGen::IrOp", ptr %53, i32 0, i32 0
  %194 = load i32, ptr %193, align 4
  %195 = getelementptr inbounds nuw %"struct.Luau::CodeGen::IrOp", ptr %54, i32 0, i32 0
  %196 = load i32, ptr %195, align 4
  %197 = getelementptr inbounds nuw %"struct.Luau::CodeGen::IrOp", ptr %55, i32 0, i32 0
  %198 = load i32, ptr %197, align 4
  %199 = getelementptr inbounds nuw %"struct.Luau::CodeGen::IrOp", ptr %56, i32 0, i32 0
  %200 = load i32, ptr %199, align 4
  %201 = call i32 @_ZN4Luau7CodeGen9IrBuilder4instENS0_5IrCmdENS0_4IrOpES3_S3_S3_(ptr noundef nonnull align 8 dereferenceable(752) %187, i8 noundef zeroext 17, i32 %194, i32 %196, i32 %198, i32 %200)
  %202 = getelementptr inbounds nuw %"struct.Luau::CodeGen::IrOp", ptr %57, i32 0, i32 0
  store i32 %201, ptr %202, align 4
  %203 = load ptr, ptr %13, align 8, !tbaa !20
  %204 = load ptr, ptr %13, align 8, !tbaa !20
  %205 = load i32, ptr %16, align 4, !tbaa !22
  %206 = trunc i32 %205 to i8
  %207 = call i32 @_ZN4Luau7CodeGen9IrBuilder5vmRegEh(ptr noundef nonnull align 8 dereferenceable(752) %204, i8 noundef zeroext %206)
  %208 = getelementptr inbounds nuw %"struct.Luau::CodeGen::IrOp", ptr %58, i32 0, i32 0
  store i32 %207, ptr %208, align 4
  %209 = load ptr, ptr %13, align 8, !tbaa !20
  %210 = call i32 @_ZN4Luau7CodeGen9IrBuilder8constTagEh(ptr noundef nonnull align 8 dereferenceable(752) %209, i8 noundef zeroext 4)
  %211 = getelementptr inbounds nuw %"struct.Luau::CodeGen::IrOp", ptr %59, i32 0, i32 0
  store i32 %210, ptr %211, align 4
  %212 = getelementptr inbounds nuw %"struct.Luau::CodeGen::IrOp", ptr %58, i32 0, i32 0
  %213 = load i32, ptr %212, align 4
  %214 = getelementptr inbounds nuw %"struct.Luau::CodeGen::IrOp", ptr %59, i32 0, i32 0
  %215 = load i32, ptr %214, align 4
  %216 = call i32 @_ZN4Luau7CodeGen9IrBuilder4instENS0_5IrCmdENS0_4IrOpES3_(ptr noundef nonnull align 8 dereferenceable(752) %203, i8 noundef zeroext 12, i32 %213, i32 %215)
  %217 = getelementptr inbounds nuw %"struct.Luau::CodeGen::IrOp", ptr %60, i32 0, i32 0
  store i32 %216, ptr %217, align 4
  %218 = getelementptr inbounds nuw %"struct.Luau::CodeGen::BuiltinImplResult", ptr %10, i32 0, i32 0
  store i32 2, ptr %218, align 4, !tbaa !24
  %219 = getelementptr inbounds nuw %"struct.Luau::CodeGen::BuiltinImplResult", ptr %10, i32 0, i32 1
  store i32 1, ptr %219, align 4, !tbaa !27
  store i32 1, ptr %21, align 4
  call void @llvm.lifetime.end.p0(i64 4, ptr %50) #11
  call void @llvm.lifetime.end.p0(i64 4, ptr %47) #11
  call void @llvm.lifetime.end.p0(i64 4, ptr %44) #11
  call void @llvm.lifetime.end.p0(i64 4, ptr %41) #11
  call void @llvm.lifetime.end.p0(i64 4, ptr %38) #11
  call void @llvm.lifetime.end.p0(i64 4, ptr %35) #11
  call void @llvm.lifetime.end.p0(i64 4, ptr %32) #11
  call void @llvm.lifetime.end.p0(i64 4, ptr %29) #11
  call void @llvm.lifetime.end.p0(i64 4, ptr %26) #11
  br label %220

220:                                              ; preds = %84, %81
  call void @llvm.lifetime.end.p0(i64 4, ptr %20) #11
  %221 = load i64, ptr %10, align 4
  ret i64 %221
}